target datalayout = "e-m:e-p270:32:32-p271:32:32-p272:64:64-i64:64-i128:128-f80:128-n8:16:32:64-S128"
target triple = "x86_64-pc-linux-gnu"

%struct.object_st = type { i32, double, ptr, ptr, i64, [256 x i8], i64, ptr, i64 }

@.str.3 = private unnamed_addr constant [30 x i8] c"../openssl/test/params_test.c\00", align 1
@.str.9 = private unnamed_addr constant [3 x i8] c"p1\00", align 1
@.str.10 = private unnamed_addr constant [3 x i8] c"p2\00", align 1
@.str.11 = private unnamed_addr constant [3 x i8] c"p3\00", align 1
@.str.13 = private unnamed_addr constant [3 x i8] c"p4\00", align 1
@.str.15 = private unnamed_addr constant [3 x i8] c"p5\00", align 1
@.str.18 = private unnamed_addr constant [3 x i8] c"p6\00", align 1
@.str.29 = private unnamed_addr constant [31 x i8] c"OSSL_PARAM_set_int(p, obj->p1)\00", align 1
@.str.30 = private unnamed_addr constant [34 x i8] c"OSSL_PARAM_set_double(p, obj->p2)\00", align 1
@.str.31 = private unnamed_addr constant [30 x i8] c"OSSL_PARAM_set_BN(p, obj->p3)\00", align 1
@.str.32 = private unnamed_addr constant [39 x i8] c"OSSL_PARAM_set_utf8_string(p, obj->p4)\00", align 1
@.str.33 = private unnamed_addr constant [39 x i8] c"OSSL_PARAM_set_utf8_string(p, obj->p5)\00", align 1
@.str.34 = private unnamed_addr constant [36 x i8] c"OSSL_PARAM_set_utf8_ptr(p, obj->p6)\00", align 1

; Function Attrs: nounwind uwtable
define internal i32 @api_get_params(ptr noundef %0, ptr noundef %1) #0 {
  %3 = alloca i32, align 4
  %4 = alloca ptr, align 8
  %5 = alloca ptr, align 8
  %6 = alloca ptr, align 8
  %7 = alloca ptr, align 8
  %8 = alloca i32, align 4
  store ptr %0, ptr %4, align 8, !tbaa !24
  store ptr %1, ptr %5, align 8, !tbaa !20
  call void @llvm.lifetime.start.p0(i64 8, ptr %6) #7
  %9 = load ptr, ptr %4, align 8, !tbaa !24
  store ptr %9, ptr %6, align 8, !tbaa !35
  call void @llvm.lifetime.start.p0(i64 8, ptr %7) #7
  store ptr null, ptr %7, align 8, !tbaa !20
  %10 = load ptr, ptr %5, align 8, !tbaa !20
  %11 = call ptr @OSSL_PARAM_locate(ptr noundef %10, ptr noundef @.str.9)
  store ptr %11, ptr %7, align 8, !tbaa !20
  %12 = icmp ne ptr %11, null
  br i1 %12, label %13, label %24

13:                                               ; preds = %2
  %14 = load ptr, ptr %7, align 8, !tbaa !20
  %15 = load ptr, ptr %6, align 8, !tbaa !35
  %16 = getelementptr inbounds nuw %struct.object_st, ptr %15, i32 0, i32 0
  %17 = load i32, ptr %16, align 8, !tbaa !37
  %18 = call i32 @OSSL_PARAM_set_int(ptr noundef %14, i32 noundef %17)
  %19 = icmp ne i32 %18, 0
  %20 = zext i1 %19 to i32
  %21 = call i32 @test_true(ptr noundef @.str.3, i32 noundef 251, ptr noundef @.str.29, i32 noundef %20)
  %22 = icmp ne i32 %21, 0
  br i1 %22, label %24, label %23

23:                                               ; preds = %13
  store i32 0, ptr %3, align 4
  store i32 1, ptr %8, align 4
  br label %100

24:                                               ; preds = %13, %2
  %25 = load ptr, ptr %5, align 8, !tbaa !20
  %26 = call ptr @OSSL_PARAM_locate(ptr noundef %25, ptr noundef @.str.10)
  store ptr %26, ptr %7, align 8, !tbaa !20
  %27 = icmp ne ptr %26, null
  br i1 %27, label %28, label %39

28:                                               ; preds = %24
  %29 = load ptr, ptr %7, align 8, !tbaa !20
  %30 = load ptr, ptr %6, align 8, !tbaa !35
  %31 = getelementptr inbounds nuw %struct.object_st, ptr %30, i32 0, i32 1
  %32 = load double, ptr %31, align 8, !tbaa !39
  %33 = call i32 @OSSL_PARAM_set_double(ptr noundef %29, double noundef %32)
  %34 = icmp ne i32 %33, 0
  %35 = zext i1 %34 to i32
  %36 = call i32 @test_true(ptr noundef @.str.3, i32 noundef 254, ptr noundef @.str.30, i32 noundef %35)
  %37 = icmp ne i32 %36, 0
  br i1 %37, label %39, label %38

38:                                               ; preds = %28
  store i32 0, ptr %3, align 4
  store i32 1, ptr %8, align 4
  br label %100

39:                                               ; preds = %28, %24
  %40 = load ptr, ptr %5, align 8, !tbaa !20
  %41 = call ptr @OSSL_PARAM_locate(ptr noundef %40, ptr noundef @.str.11)
  store ptr %41, ptr %7, align 8, !tbaa !20
  %42 = icmp ne ptr %41, null
  br i1 %42, label %43, label %54

43:                                               ; preds = %39
  %44 = load ptr, ptr %7, align 8, !tbaa !20
  %45 = load ptr, ptr %6, align 8, !tbaa !35
  %46 = getelementptr inbounds nuw %struct.object_st, ptr %45, i32 0, i32 2
  %47 = load ptr, ptr %46, align 8, !tbaa !40
  %48 = call i32 @OSSL_PARAM_set_BN(ptr noundef %44, ptr noundef %47)
  %49 = icmp ne i32 %48, 0
  %50 = zext i1 %49 to i32
  %51 = call i32 @test_true(ptr noundef @.str.3, i32 noundef 257, ptr noundef @.str.31, i32 noundef %50)
  %52 = icmp ne i32 %51, 0
  br i1 %52, label %54, label %53

53:                                               ; preds = %43
  store i32 0, ptr %3, align 4
  store i32 1, ptr %8, align 4
  br label %100

54:                                               ; preds = %43, %39
  %55 = load ptr, ptr %5, align 8, !tbaa !20
  %56 = call ptr @OSSL_PARAM_locate(ptr noundef %55, ptr noundef @.str.13)
  store ptr %56, ptr %7, align 8, !tbaa !20
  %57 = icmp ne ptr %56, null
  br i1 %57, label %58, label %69

58:                                               ; preds = %54
  %59 = load ptr, ptr %7, align 8, !tbaa !20
  %60 = load ptr, ptr %6, align 8, !tbaa !35
  %61 = getelementptr inbounds nuw %struct.object_st, ptr %60, i32 0, i32 3
  %62 = load ptr, ptr %61, align 8, !tbaa !41
  %63 = call i32 @OSSL_PARAM_set_utf8_string(ptr noundef %59, ptr noundef %62)
  %64 = icmp ne i32 %63, 0
  %65 = zext i1 %64 to i32
  %66 = call i32 @test_true(ptr noundef @.str.3, i32 noundef 260, ptr noundef @.str.32, i32 noundef %65)
  %67 = icmp ne i32 %66, 0
  br i1 %67, label %69, label %68

68:                                               ; preds = %58
  store i32 0, ptr %3, align 4
  store i32 1, ptr %8, align 4
  br label %100

69:                                               ; preds = %58, %54
  %70 = load ptr, ptr %5, align 8, !tbaa !20
  %71 = call ptr @OSSL_PARAM_locate(ptr noundef %70, ptr noundef @.str.15)
  store ptr %71, ptr %7, align 8, !tbaa !20
  %72 = icmp ne ptr %71, null
  br i1 %72, label %73, label %84

73:                                               ; preds = %69
  %74 = load ptr, ptr %7, align 8, !tbaa !20
  %75 = load ptr, ptr %6, align 8, !tbaa !35
  %76 = getelementptr inbounds nuw %struct.object_st, ptr %75, i32 0, i32 5
  %77 = getelementptr inbounds [256 x i8], ptr %76, i64 0, i64 0
  %78 = call i32 @OSSL_PARAM_set_utf8_string(ptr noundef %74, ptr noundef %77)
  %79 = icmp ne i32 %78, 0
  %80 = zext i1 %79 to i32
  %81 = call i32 @test_true(ptr noundef @.str.3, i32 noundef 263, ptr noundef @.str.33, i32 noundef %80)
  %82 = icmp ne i32 %81, 0
  br i1 %82, label %84, label %83

83:                                               ; preds = %73
  store i32 0, ptr %3, align 4
  store i32 1, ptr %8, align 4
  br label %100

84:                                               ; preds = %73, %69
  %85 = load ptr, ptr %5, align 8, !tbaa !20
  %86 = call ptr @OSSL_PARAM_locate(ptr noundef %85, ptr noundef @.str.18)
  store ptr %86, ptr %7, align 8, !tbaa !20
  %87 = icmp ne ptr %86, null
  br i1 %87, label %88, label %99

88:                                               ; preds = %84
  %89 = load ptr, ptr %7, align 8, !tbaa !20
  %90 = load ptr, ptr %6, align 8, !tbaa !35
  %91 = getelementptr inbounds nuw %struct.object_st, ptr %90, i32 0, i32 7
  %92 = load ptr, ptr %91, align 8, !tbaa !42
  %93 = call i32 @OSSL_PARAM_set_utf8_ptr(ptr noundef %89, ptr noundef %92)
  %94 = icmp ne i32 %93, 0
  %95 = zext i1 %94 to i32
  %96 = call i32 @test_true(ptr noundef @.str.3, i32 noundef 266, ptr noundef @.str.34, i32 noundef %95)
  %97 = icmp ne i32 %96, 0
  br i1 %97, label %99, label %98

98:                                               ; preds = %88
  store i32 0, ptr %3, align 4
  store i32 1, ptr %8, align 4
  br label %100

99:                                               ; preds = %88, %84
  store i32 1, ptr %3, align 4
  store i32 1, ptr %8, align 4
  br label %100

100:                                              ; preds = %99, %98, %83, %68, %53, %38, %23
  call void @llvm.lifetime.end.p0(i64 8, ptr %7) #7
  call void @llvm.lifetime.end.p0(i64 8, ptr %6) #7
  %101 = load i32, ptr %3, align 4
  ret i32 %101
}