; Function Attrs: nounwind uwtable
define internal range(i32 0, 2) i32 @api_get_params(ptr noundef %0, ptr noundef %1) #0 {
  %3 = tail call ptr @OSSL_PARAM_locate(ptr noundef %1, ptr noundef nonnull @.str.9) #7
  %.not = icmp eq ptr %3, null
  br i1 %.not, label %10, label %4

4:                                                ; preds = %2
  %5 = load i32, ptr %0, align 8, !tbaa !29
  %6 = tail call i32 @OSSL_PARAM_set_int(ptr noundef nonnull %3, i32 noundef %5) #7
  %7 = icmp ne i32 %6, 0
  %8 = zext i1 %7 to i32
  %9 = tail call i32 @test_true(ptr noundef nonnull @.str.3, i32 noundef 251, ptr noundef nonnull @.str.29, i32 noundef %8) #7
  %.not25 = icmp eq i32 %9, 0
  br i1 %.not25, label %55, label %10

10:                                               ; preds = %4, %2
  %11 = tail call ptr @OSSL_PARAM_locate(ptr noundef %1, ptr noundef nonnull @.str.10) #7
  %.not26 = icmp eq ptr %11, null
  br i1 %.not26, label %19, label %12

12:                                               ; preds = %10
  %13 = getelementptr inbounds nuw i8, ptr %0, i64 8
  %14 = load double, ptr %13, align 8, !tbaa !32
  %15 = tail call i32 @OSSL_PARAM_set_double(ptr noundef nonnull %11, double noundef %14) #7
  %16 = icmp ne i32 %15, 0
  %17 = zext i1 %16 to i32
  %18 = tail call i32 @test_true(ptr noundef nonnull @.str.3, i32 noundef 254, ptr noundef nonnull @.str.30, i32 noundef %17) #7
  %.not27 = icmp eq i32 %18, 0
  br i1 %.not27, label %55, label %19

19:                                               ; preds = %12, %10
  %20 = tail call ptr @OSSL_PARAM_locate(ptr noundef %1, ptr noundef nonnull @.str.11) #7
  %.not28 = icmp eq ptr %20, null
  br i1 %.not28, label %28, label %21

21:                                               ; preds = %19
  %22 = getelementptr inbounds nuw i8, ptr %0, i64 16
  %23 = load ptr, ptr %22, align 8, !tbaa !35
  %24 = tail call i32 @OSSL_PARAM_set_BN(ptr noundef nonnull %20, ptr noundef %23) #7
  %25 = icmp ne i32 %24, 0
  %26 = zext i1 %25 to i32
  %27 = tail call i32 @test_true(ptr noundef nonnull @.str.3, i32 noundef 257, ptr noundef nonnull @.str.31, i32 noundef %26) #7
  %.not29 = icmp eq i32 %27, 0
  br i1 %.not29, label %55, label %28

28:                                               ; preds = %21, %19
  %29 = tail call ptr @OSSL_PARAM_locate(ptr noundef %1, ptr noundef nonnull @.str.13) #7
  %.not30 = icmp eq ptr %29, null
  br i1 %.not30, label %37, label %30

30:                                               ; preds = %28
  %31 = getelementptr inbounds nuw i8, ptr %0, i64 24
  %32 = load ptr, ptr %31, align 8, !tbaa !33
  %33 = tail call i32 @OSSL_PARAM_set_utf8_string(ptr noundef nonnull %29, ptr noundef %32) #7
  %34 = icmp ne i32 %33, 0
  %35 = zext i1 %34 to i32
  %36 = tail call i32 @test_true(ptr noundef nonnull @.str.3, i32 noundef 260, ptr noundef nonnull @.str.32, i32 noundef %35) #7
  %.not31 = icmp eq i32 %36, 0
  br i1 %.not31, label %55, label %37

37:                                               ; preds = %30, %28
  %38 = tail call ptr @OSSL_PARAM_locate(ptr noundef %1, ptr noundef nonnull @.str.15) #7
  %.not32 = icmp eq ptr %38, null
  br i1 %.not32, label %45, label %39

39:                                               ; preds = %37
  %40 = getelementptr inbounds nuw i8, ptr %0, i64 40
  %41 = tail call i32 @OSSL_PARAM_set_utf8_string(ptr noundef nonnull %38, ptr noundef nonnull %40) #7
  %42 = icmp ne i32 %41, 0
  %43 = zext i1 %42 to i32
  %44 = tail call i32 @test_true(ptr noundef nonnull @.str.3, i32 noundef 263, ptr noundef nonnull @.str.33, i32 noundef %43) #7
  %.not33 = icmp eq i32 %44, 0
  br i1 %.not33, label %55, label %45

45:                                               ; preds = %39, %37
  %46 = tail call ptr @OSSL_PARAM_locate(ptr noundef %1, ptr noundef nonnull @.str.18) #7
  %.not34 = icmp eq ptr %46, null
  br i1 %.not34, label %54, label %47

47:                                               ; preds = %45
  %48 = getelementptr inbounds nuw i8, ptr %0, i64 304
  %49 = load ptr, ptr %48, align 8, !tbaa !34
  %50 = tail call i32 @OSSL_PARAM_set_utf8_ptr(ptr noundef nonnull %46, ptr noundef %49) #7
  %51 = icmp ne i32 %50, 0
  %52 = zext i1 %51 to i32
  %53 = tail call i32 @test_true(ptr noundef nonnull @.str.3, i32 noundef 266, ptr noundef nonnull @.str.34, i32 noundef %52) #7
  %.not35 = icmp eq i32 %53, 0
  br i1 %.not35, label %55, label %54

54:                                               ; preds = %47, %45
  br label %55

55:                                               ; preds = %47, %39, %30, %21, %12, %4, %54
  %.0 = phi i32 [ 1, %54 ], [ 0, %4 ], [ 0, %12 ], [ 0, %21 ], [ 0, %30 ], [ 0, %39 ], [ 0, %47 ]
  ret i32 %.0
}